; Function Attrs: nounwind sspstrong uwtable
define internal noundef i32 @parse_iso25_cb(i64 noundef %0, i64 noundef %1) #0 {
  %3 = tail call i64 @rb_reg_nth_match(i32 noundef 1, i64 noundef %0) #13
  %4 = tail call i64 @rb_reg_nth_match(i32 noundef 2, i64 noundef %0) #13
  %.pr.i = load i64, ptr @parse_iso25_cb.rbimpl_id, align 8, !tbaa !6
  %.not4.i = icmp eq i64 %.pr.i, 0
  br i1 %.not4.i, label %.lr.ph.i, label %rbimpl_intern_const.exit

.lr.ph.i:                                         ; preds = %2, %.lr.ph.i
  %5 = tail call i64 @rb_intern2(ptr noundef nonnull @.str.18, i64 noundef 4) #13
  store i64 %5, ptr @parse_iso25_cb.rbimpl_id, align 8, !tbaa !6
  %.not.i = icmp eq i64 %5, 0
  br i1 %.not.i, label %.lr.ph.i, label %rbimpl_intern_const.exit, !llvm.loop !36

rbimpl_intern_const.exit:                         ; preds = %.lr.ph.i, %2
  %.lcssa.i = phi i64 [ %.pr.i, %2 ], [ %5, %.lr.ph.i ]
  %6 = tail call i64 @rb_id2sym(i64 noundef %.lcssa.i) #13
  %7 = tail call i64 @rb_str_to_inum(i64 noundef %3, i32 noundef 10, i32 noundef 0) #13
  %8 = tail call i64 @rb_hash_aset(i64 noundef %1, i64 noundef %6, i64 noundef %7) #13
  %.pr.i8 = load i64, ptr @parse_iso25_cb.rbimpl_id.75, align 8, !tbaa !6
  %.not4.i9 = icmp eq i64 %.pr.i8, 0
  br i1 %.not4.i9, label %.lr.ph.i11, label %rbimpl_intern_const.exit13

.lr.ph.i11:                                       ; preds = %rbimpl_intern_const.exit, %.lr.ph.i11
  %9 = tail call i64 @rb_intern2(ptr noundef nonnull @.str.76, i64 noundef 4) #13
  store i64 %9, ptr @parse_iso25_cb.rbimpl_id.75, align 8, !tbaa !6
  %.not.i12 = icmp eq i64 %9, 0
  br i1 %.not.i12, label %.lr.ph.i11, label %rbimpl_intern_const.exit13, !llvm.loop !36

rbimpl_intern_const.exit13:                       ; preds = %.lr.ph.i11, %rbimpl_intern_const.exit
  %.lcssa.i10 = phi i64 [ %.pr.i8, %rbimpl_intern_const.exit ], [ %9, %.lr.ph.i11 ]
  %10 = tail call i64 @rb_id2sym(i64 noundef %.lcssa.i10) #13
  %11 = tail call i64 @rb_str_to_inum(i64 noundef %4, i32 noundef 10, i32 noundef 0) #13
  %12 = tail call i64 @rb_hash_aset(i64 noundef %1, i64 noundef %10, i64 noundef %11) #13
  ret i32 1
}